target datalayout = "e-m:e-p270:32:32-p271:32:32-p272:64:64-i64:64-i128:128-f80:128-n8:16:32:64-S128"
target triple = "x86_64-pc-linux-gnu"

%struct._MAD = type { i8, i8, i8, i8, i16, i8, i8, i64, i16, i16, i32 }

@hf_opa_FabricInfoRecord = internal global i32 0, align 4
@hf_opa_FabricInfoRecord_NumHFIs = internal global i32 0, align 4
@hf_opa_FabricInfoRecord_NumSwitches = internal global i32 0, align 4
@hf_opa_FabricInfoRecord_NumInternalHFILinks = internal global i32 0, align 4
@hf_opa_FabricInfoRecord_NumExternalHFILinks = internal global i32 0, align 4
@hf_opa_FabricInfoRecord_NumInternalISLs = internal global i32 0, align 4
@hf_opa_FabricInfoRecord_NumExternalISLs = internal global i32 0, align 4
@hf_opa_FabricInfoRecord_NumDegradedHFILinks = internal global i32 0, align 4
@hf_opa_FabricInfoRecord_NumDegradedISLs = internal global i32 0, align 4
@hf_opa_FabricInfoRecord_NumOmittedHFILinks = internal global i32 0, align 4
@hf_opa_FabricInfoRecord_NumOmittedISLs = internal global i32 0, align 4
@hf_opa_FabricInfoRecord_Reserved = internal global i32 0, align 4
@ett_fabricinforecord = internal global i32 0, align 4

; Function Attrs: null_pointer_is_valid sspstrong uwtable
define internal i32 @parse_FabricInfoRecord(ptr noundef %0, ptr noundef %1, ptr noundef %2, ptr noundef %3) #0 {
  %5 = alloca i32, align 4
  %6 = alloca ptr, align 8
  %7 = alloca ptr, align 8
  %8 = alloca ptr, align 8
  %9 = alloca ptr, align 8
  %10 = alloca i32, align 4
  %11 = alloca ptr, align 8
  %12 = alloca ptr, align 8
  %13 = alloca i32, align 4
  store ptr %0, ptr %6, align 8
  store ptr %1, ptr %7, align 8
  store ptr %2, ptr %8, align 8
  store ptr %3, ptr %9, align 8
  call void @llvm.lifetime.start.p0(i64 4, ptr %10) #7
  %14 = load ptr, ptr %8, align 8
  %15 = load i32, ptr %14, align 4
  store i32 %15, ptr %10, align 4
  call void @llvm.lifetime.start.p0(i64 8, ptr %11) #7
  call void @llvm.lifetime.start.p0(i64 8, ptr %12) #7
  %16 = load ptr, ptr %6, align 8
  %17 = icmp ne ptr %16, null
  br i1 %17, label %18, label %30

18:                                               ; preds = %4
  %19 = load ptr, ptr %9, align 8
  %20 = getelementptr inbounds nuw %struct._MAD, ptr %19, i32 0, i32 3
  %21 = load i8, ptr %20, align 1
  %22 = zext i8 %21 to i32
  %23 = icmp eq i32 %22, 1
  br i1 %23, label %30, label %24

24:                                               ; preds = %18
  %25 = load ptr, ptr %9, align 8
  %26 = getelementptr inbounds nuw %struct._MAD, ptr %25, i32 0, i32 3
  %27 = load i8, ptr %26, align 1
  %28 = zext i8 %27 to i32
  %29 = icmp eq i32 %28, 18
  br i1 %29, label %30, label %33

30:                                               ; preds = %24, %18, %4
  %31 = load ptr, ptr %8, align 8
  %32 = load i32, ptr %31, align 4
  store i32 %32, ptr %5, align 4
  store i32 1, ptr %13, align 4
  br label %120

33:                                               ; preds = %24
  %34 = load ptr, ptr %6, align 8
  %35 = load i32, ptr @hf_opa_FabricInfoRecord, align 4
  %36 = load ptr, ptr %7, align 8
  %37 = load i32, ptr %10, align 4
  %38 = call ptr @proto_tree_add_item(ptr noundef %34, i32 noundef %35, ptr noundef %36, i32 noundef %37, i32 noundef 132, i32 noundef 0)
  store ptr %38, ptr %11, align 8
  %39 = load ptr, ptr %11, align 8
  %40 = load i32, ptr @ett_fabricinforecord, align 4
  %41 = call ptr @proto_item_add_subtree(ptr noundef %39, i32 noundef %40)
  store ptr %41, ptr %12, align 8
  %42 = load ptr, ptr %12, align 8
  %43 = load i32, ptr @hf_opa_FabricInfoRecord_NumHFIs, align 4
  %44 = load ptr, ptr %7, align 8
  %45 = load i32, ptr %10, align 4
  %46 = call ptr @proto_tree_add_item(ptr noundef %42, i32 noundef %43, ptr noundef %44, i32 noundef %45, i32 noundef 4, i32 noundef 0)
  %47 = load i32, ptr %10, align 4
  %48 = add i32 %47, 4
  store i32 %48, ptr %10, align 4
  %49 = load ptr, ptr %12, align 8
  %50 = load i32, ptr @hf_opa_FabricInfoRecord_NumSwitches, align 4
  %51 = load ptr, ptr %7, align 8
  %52 = load i32, ptr %10, align 4
  %53 = call ptr @proto_tree_add_item(ptr noundef %49, i32 noundef %50, ptr noundef %51, i32 noundef %52, i32 noundef 4, i32 noundef 0)
  %54 = load i32, ptr %10, align 4
  %55 = add i32 %54, 4
  store i32 %55, ptr %10, align 4
  %56 = load ptr, ptr %12, align 8
  %57 = load i32, ptr @hf_opa_FabricInfoRecord_NumInternalHFILinks, align 4
  %58 = load ptr, ptr %7, align 8
  %59 = load i32, ptr %10, align 4
  %60 = call ptr @proto_tree_add_item(ptr noundef %56, i32 noundef %57, ptr noundef %58, i32 noundef %59, i32 noundef 4, i32 noundef 0)
  %61 = load i32, ptr %10, align 4
  %62 = add i32 %61, 4
  store i32 %62, ptr %10, align 4
  %63 = load ptr, ptr %12, align 8
  %64 = load i32, ptr @hf_opa_FabricInfoRecord_NumExternalHFILinks, align 4
  %65 = load ptr, ptr %7, align 8
  %66 = load i32, ptr %10, align 4
  %67 = call ptr @proto_tree_add_item(ptr noundef %63, i32 noundef %64, ptr noundef %65, i32 noundef %66, i32 noundef 4, i32 noundef 0)
  %68 = load i32, ptr %10, align 4
  %69 = add i32 %68, 4
  store i32 %69, ptr %10, align 4
  %70 = load ptr, ptr %12, align 8
  %71 = load i32, ptr @hf_opa_FabricInfoRecord_NumInternalISLs, align 4
  %72 = load ptr, ptr %7, align 8
  %73 = load i32, ptr %10, align 4
  %74 = call ptr @proto_tree_add_item(ptr noundef %70, i32 noundef %71, ptr noundef %72, i32 noundef %73, i32 noundef 4, i32 noundef 0)
  %75 = load i32, ptr %10, align 4
  %76 = add i32 %75, 4
  store i32 %76, ptr %10, align 4
  %77 = load ptr, ptr %12, align 8
  %78 = load i32, ptr @hf_opa_FabricInfoRecord_NumExternalISLs, align 4
  %79 = load ptr, ptr %7, align 8
  %80 = load i32, ptr %10, align 4
  %81 = call ptr @proto_tree_add_item(ptr noundef %77, i32 noundef %78, ptr noundef %79, i32 noundef %80, i32 noundef 4, i32 noundef 0)
  %82 = load i32, ptr %10, align 4
  %83 = add i32 %82, 4
  store i32 %83, ptr %10, align 4
  %84 = load ptr, ptr %12, align 8
  %85 = load i32, ptr @hf_opa_FabricInfoRecord_NumDegradedHFILinks, align 4
  %86 = load ptr, ptr %7, align 8
  %87 = load i32, ptr %10, align 4
  %88 = call ptr @proto_tree_add_item(ptr noundef %84, i32 noundef %85, ptr noundef %86, i32 noundef %87, i32 noundef 4, i32 noundef 0)
  %89 = load i32, ptr %10, align 4
  %90 = add i32 %89, 4
  store i32 %90, ptr %10, align 4
  %91 = load ptr, ptr %12, align 8
  %92 = load i32, ptr @hf_opa_FabricInfoRecord_NumDegradedISLs, align 4
  %93 = load ptr, ptr %7, align 8
  %94 = load i32, ptr %10, align 4
  %95 = call ptr @proto_tree_add_item(ptr noundef %91, i32 noundef %92, ptr noundef %93, i32 noundef %94, i32 noundef 4, i32 noundef 0)
  %96 = load i32, ptr %10, align 4
  %97 = add i32 %96, 4
  store i32 %97, ptr %10, align 4
  %98 = load ptr, ptr %12, align 8
  %99 = load i32, ptr @hf_opa_FabricInfoRecord_NumOmittedHFILinks, align 4
  %100 = load ptr, ptr %7, align 8
  %101 = load i32, ptr %10, align 4
  %102 = call ptr @proto_tree_add_item(ptr noundef %98, i32 noundef %99, ptr noundef %100, i32 noundef %101, i32 noundef 4, i32 noundef 0)
  %103 = load i32, ptr %10, align 4
  %104 = add i32 %103, 4
  store i32 %104, ptr %10, align 4
  %105 = load ptr, ptr %12, align 8
  %106 = load i32, ptr @hf_opa_FabricInfoRecord_NumOmittedISLs, align 4
  %107 = load ptr, ptr %7, align 8
  %108 = load i32, ptr %10, align 4
  %109 = call ptr @proto_tree_add_item(ptr noundef %105, i32 noundef %106, ptr noundef %107, i32 noundef %108, i32 noundef 4, i32 noundef 0)
  %110 = load i32, ptr %10, align 4
  %111 = add i32 %110, 4
  store i32 %111, ptr %10, align 4
  %112 = load ptr, ptr %12, align 8
  %113 = load i32, ptr @hf_opa_FabricInfoRecord_Reserved, align 4
  %114 = load ptr, ptr %7, align 8
  %115 = load i32, ptr %10, align 4
  %116 = call ptr @proto_tree_add_item(ptr noundef %112, i32 noundef %113, ptr noundef %114, i32 noundef %115, i32 noundef 92, i32 noundef 0)
  %117 = load i32, ptr %10, align 4
  %118 = add i32 %117, 92
  store i32 %118, ptr %10, align 4
  %119 = load i32, ptr %10, align 4
  store i32 %119, ptr %5, align 4
  store i32 1, ptr %13, align 4
  br label %120

120:                                              ; preds = %33, %30
  call void @llvm.lifetime.end.p0(i64 8, ptr %12) #7
  call void @llvm.lifetime.end.p0(i64 8, ptr %11) #7
  call void @llvm.lifetime.end.p0(i64 4, ptr %10) #7
  %121 = load i32, ptr %5, align 4
  ret i32 %121
}