; Function Attrs: null_pointer_is_valid sspstrong uwtable
define internal fastcc void @parse_FabricInfoRecord(ptr noundef %0, ptr noundef %1, i32 %.0.val, ptr noundef readonly captures(none) %2) unnamed_addr #0 {
  %.not = icmp eq ptr %0, null
  br i1 %.not, label %44, label %4

4:                                                ; preds = %3
  %5 = getelementptr inbounds nuw i8, ptr %2, i64 3
  %6 = load i8, ptr %5, align 1
  switch i8 %6, label %7 [
    i8 1, label %44
    i8 18, label %44
  ]

7:                                                ; preds = %4
  %8 = load i32, ptr @hf_opa_FabricInfoRecord, align 4
  %9 = tail call ptr @proto_tree_add_item(ptr noundef nonnull %0, i32 noundef %8, ptr noundef %1, i32 noundef %.0.val, i32 noundef 132, i32 noundef 0)
  %10 = load i32, ptr @ett_fabricinforecord, align 4
  %11 = tail call ptr @proto_item_add_subtree(ptr noundef %9, i32 noundef %10)
  %12 = load i32, ptr @hf_opa_FabricInfoRecord_NumHFIs, align 4
  %13 = tail call ptr @proto_tree_add_item(ptr noundef %11, i32 noundef %12, ptr noundef %1, i32 noundef %.0.val, i32 noundef 4, i32 noundef 0)
  %14 = add i32 %.0.val, 4
  %15 = load i32, ptr @hf_opa_FabricInfoRecord_NumSwitches, align 4
  %16 = tail call ptr @proto_tree_add_item(ptr noundef %11, i32 noundef %15, ptr noundef %1, i32 noundef %14, i32 noundef 4, i32 noundef 0)
  %17 = add i32 %.0.val, 8
  %18 = load i32, ptr @hf_opa_FabricInfoRecord_NumInternalHFILinks, align 4
  %19 = tail call ptr @proto_tree_add_item(ptr noundef %11, i32 noundef %18, ptr noundef %1, i32 noundef %17, i32 noundef 4, i32 noundef 0)
  %20 = add i32 %.0.val, 12
  %21 = load i32, ptr @hf_opa_FabricInfoRecord_NumExternalHFILinks, align 4
  %22 = tail call ptr @proto_tree_add_item(ptr noundef %11, i32 noundef %21, ptr noundef %1, i32 noundef %20, i32 noundef 4, i32 noundef 0)
  %23 = add i32 %.0.val, 16
  %24 = load i32, ptr @hf_opa_FabricInfoRecord_NumInternalISLs, align 4
  %25 = tail call ptr @proto_tree_add_item(ptr noundef %11, i32 noundef %24, ptr noundef %1, i32 noundef %23, i32 noundef 4, i32 noundef 0)
  %26 = add i32 %.0.val, 20
  %27 = load i32, ptr @hf_opa_FabricInfoRecord_NumExternalISLs, align 4
  %28 = tail call ptr @proto_tree_add_item(ptr noundef %11, i32 noundef %27, ptr noundef %1, i32 noundef %26, i32 noundef 4, i32 noundef 0)
  %29 = add i32 %.0.val, 24
  %30 = load i32, ptr @hf_opa_FabricInfoRecord_NumDegradedHFILinks, align 4
  %31 = tail call ptr @proto_tree_add_item(ptr noundef %11, i32 noundef %30, ptr noundef %1, i32 noundef %29, i32 noundef 4, i32 noundef 0)
  %32 = add i32 %.0.val, 28
  %33 = load i32, ptr @hf_opa_FabricInfoRecord_NumDegradedISLs, align 4
  %34 = tail call ptr @proto_tree_add_item(ptr noundef %11, i32 noundef %33, ptr noundef %1, i32 noundef %32, i32 noundef 4, i32 noundef 0)
  %35 = add i32 %.0.val, 32
  %36 = load i32, ptr @hf_opa_FabricInfoRecord_NumOmittedHFILinks, align 4
  %37 = tail call ptr @proto_tree_add_item(ptr noundef %11, i32 noundef %36, ptr noundef %1, i32 noundef %35, i32 noundef 4, i32 noundef 0)
  %38 = add i32 %.0.val, 36
  %39 = load i32, ptr @hf_opa_FabricInfoRecord_NumOmittedISLs, align 4
  %40 = tail call ptr @proto_tree_add_item(ptr noundef %11, i32 noundef %39, ptr noundef %1, i32 noundef %38, i32 noundef 4, i32 noundef 0)
  %41 = add i32 %.0.val, 40
  %42 = load i32, ptr @hf_opa_FabricInfoRecord_Reserved, align 4
  %43 = tail call ptr @proto_tree_add_item(ptr noundef %11, i32 noundef %42, ptr noundef %1, i32 noundef %41, i32 noundef 92, i32 noundef 0)
  br label %44

44:                                               ; preds = %3, %4, %4, %7
  ret void
}